; Function Attrs: mustprogress nofree norecurse nosync nounwind willreturn memory(read, inaccessiblemem: none) uwtable
define noundef range(i64 0, 131071) i64 @_ZNK32pxrInternal_v0_24__pxrReserved__7SdfPath19GetPathElementCountEv(ptr nocapture noundef nonnull readonly align 4 dereferenceable(8) %0) local_unnamed_addr #8 align 2 personality ptr @__gxx_personality_v0 {
  %2 = load i32, ptr %0, align 4
  %.not = icmp eq i32 %2, 0
  br i1 %.not, label %15, label %3

3:                                                ; preds = %1
  %4 = and i32 %2, 255
  %5 = lshr i32 %2, 8
  %6 = zext nneg i32 %4 to i64
  %7 = getelementptr inbounds [257 x ptr], ptr @_ZN32pxrInternal_v0_24__pxrReserved__8Sdf_PoolINS_15Sdf_PathPrimTagELj24ELj8ELj16384EE13_regionStartsE, i64 0, i64 %6
  %8 = load ptr, ptr %7, align 8
  %9 = mul nuw nsw i32 %5, 24
  %10 = zext nneg i32 %9 to i64
  %11 = getelementptr inbounds i8, ptr %8, i64 %10
  %12 = getelementptr inbounds nuw i8, ptr %11, i64 12
  %13 = load i16, ptr %12, align 4
  %14 = zext i16 %13 to i64
  br label %15

15:                                               ; preds = %1, %3
  %16 = phi i64 [ %14, %3 ], [ 0, %1 ]
  %17 = getelementptr inbounds nuw i8, ptr %0, i64 4
  %18 = load i32, ptr %17, align 4
  %.not2 = icmp eq i32 %18, 0
  br i1 %.not2, label %31, label %19

19:                                               ; preds = %15
  %20 = and i32 %18, 255
  %21 = lshr i32 %18, 8
  %22 = zext nneg i32 %20 to i64
  %23 = getelementptr inbounds [257 x ptr], ptr @_ZN32pxrInternal_v0_24__pxrReserved__8Sdf_PoolINS_15Sdf_PathPropTagELj24ELj8ELj16384EE13_regionStartsE, i64 0, i64 %22
  %24 = load ptr, ptr %23, align 8
  %25 = mul nuw nsw i32 %21, 24
  %26 = zext nneg i32 %25 to i64
  %27 = getelementptr inbounds i8, ptr %24, i64 %26
  %28 = getelementptr inbounds nuw i8, ptr %27, i64 12
  %29 = load i16, ptr %28, align 4
  %30 = zext i16 %29 to i64
  br label %31

31:                                               ; preds = %15, %19
  %32 = phi i64 [ %30, %19 ], [ 0, %15 ]
  %33 = add nuw nsw i64 %32, %16
  ret i64 %33
}